(lp0
(i__main__
Repository
p1
(dp2
S'username'
p3
S'AndrewFagan'
p4
sS'listofBranches'
p5
(lp6
S'test1'
p7
aS'test2'
p8
asS'gitURL'
p9
S'https://github.com/PaulBryden/CESky-BoyZ'
p10
sS'repoName'
p11
S'CESky-Boys'
p12
sS'branch'
p13
I0
sS'gitPath'
p14
S'/home/andrew/CESky-BoyZ'
p15
sS'password'
p16
S'test*******'
p17
sS'sshKeyPath'
p18
S'/home/.ssh'
p19
sba(i__main__
Repository
p20
(dp21
g3
S'AndrewFagan'
p22
sg5
g6
sg9
S'https://github.com/PaulBryden/CESky-BoyZ'
p23
sg11
S'C_Troublesome_Repo'
p24
sg13
I0
sg14
S'/home/andrew/Failing_C_Project'
p25
sg16
S'********'
p26
sg18
S'/home/.ssh'
p27
sba.